target datalayout = "e-m:e-p270:32:32-p271:32:32-p272:64:64-i64:64-i128:128-f80:128-n8:16:32:64-S128"
target triple = "x86_64-pc-linux-gnu"

@.str.40 = private unnamed_addr constant [65 x i8] c"%s is the PostgreSQL embedded SQL preprocessor for C programs.\0A\0A\00", align 1
@.str.41 = private unnamed_addr constant [34 x i8] c"Usage:\0A  %s [OPTION]... FILE...\0A\0A\00", align 1
@.str.42 = private unnamed_addr constant [10 x i8] c"Options:\0A\00", align 1
@.str.43 = private unnamed_addr constant [116 x i8] c"  -c             automatically generate C code from embedded SQL code;\0A                 this affects EXEC SQL TYPE\0A\00", align 1
@.str.44 = private unnamed_addr constant [114 x i8] c"  -C MODE        set compatibility mode; MODE can be one of\0A                 \22INFORMIX\22, \22INFORMIX_SE\22, \22ORACLE\22\0A\00", align 1
@.str.45 = private unnamed_addr constant [32 x i8] c"  -D SYMBOL      define SYMBOL\0A\00", align 1
@.str.46 = private unnamed_addr constant [72 x i8] c"  -h             parse a header file, this option includes option \22-c\22\0A\00", align 1
@.str.47 = private unnamed_addr constant [53 x i8] c"  -i             parse system include files as well\0A\00", align 1
@.str.48 = private unnamed_addr constant [53 x i8] c"  -I DIRECTORY   search DIRECTORY for include files\0A\00", align 1
@.str.49 = private unnamed_addr constant [42 x i8] c"  -o OUTFILE     write result to OUTFILE\0A\00", align 1
@.str.50 = private unnamed_addr constant [120 x i8] c"  -r OPTION      specify run-time behavior; OPTION can be:\0A                 \22no_indicator\22, \22prepare\22, \22questionmarks\22\0A\00", align 1
@.str.51 = private unnamed_addr constant [49 x i8] c"  --regression   run in regression testing mode\0A\00", align 1
@.str.52 = private unnamed_addr constant [53 x i8] c"  -t             turn on autocommit of transactions\0A\00", align 1
@.str.53 = private unnamed_addr constant [56 x i8] c"  -V, --version  output version information, then exit\0A\00", align 1
@.str.54 = private unnamed_addr constant [44 x i8] c"  -?, --help     show this help, then exit\0A\00", align 1
@.str.55 = private unnamed_addr constant [127 x i8] c"\0AIf no output file is specified, the name is formed by adding .c to the\0Ainput file name, after stripping off .pgc if present.\0A\00", align 1
@.str.56 = private unnamed_addr constant [23 x i8] c"\0AReport bugs to <%s>.\0A\00", align 1
@.str.57 = private unnamed_addr constant [32 x i8] c"pgsql-bugs@lists.postgresql.org\00", align 1
@.str.58 = private unnamed_addr constant [20 x i8] c"%s home page: <%s>\0A\00", align 1
@.str.59 = private unnamed_addr constant [11 x i8] c"PostgreSQL\00", align 1
@.str.60 = private unnamed_addr constant [28 x i8] c"https://www.postgresql.org/\00", align 1

; Function Attrs: nounwind uwtable
define internal void @help(ptr noundef %0) #0 {
  %2 = alloca ptr, align 8
  store ptr %0, ptr %2, align 8
  %3 = load ptr, ptr %2, align 8
  %4 = call i32 (ptr, ...) @pg_printf(ptr noundef @.str.40, ptr noundef %3)
  %5 = load ptr, ptr %2, align 8
  %6 = call i32 (ptr, ...) @pg_printf(ptr noundef @.str.41, ptr noundef %5)
  %7 = call i32 (ptr, ...) @pg_printf(ptr noundef @.str.42)
  %8 = call i32 (ptr, ...) @pg_printf(ptr noundef @.str.43)
  %9 = call i32 (ptr, ...) @pg_printf(ptr noundef @.str.44)
  %10 = call i32 (ptr, ...) @pg_printf(ptr noundef @.str.45)
  %11 = call i32 (ptr, ...) @pg_printf(ptr noundef @.str.46)
  %12 = call i32 (ptr, ...) @pg_printf(ptr noundef @.str.47)
  %13 = call i32 (ptr, ...) @pg_printf(ptr noundef @.str.48)
  %14 = call i32 (ptr, ...) @pg_printf(ptr noundef @.str.49)
  %15 = call i32 (ptr, ...) @pg_printf(ptr noundef @.str.50)
  %16 = call i32 (ptr, ...) @pg_printf(ptr noundef @.str.51)
  %17 = call i32 (ptr, ...) @pg_printf(ptr noundef @.str.52)
  %18 = call i32 (ptr, ...) @pg_printf(ptr noundef @.str.53)
  %19 = call i32 (ptr, ...) @pg_printf(ptr noundef @.str.54)
  %20 = call i32 (ptr, ...) @pg_printf(ptr noundef @.str.55)
  %21 = call i32 (ptr, ...) @pg_printf(ptr noundef @.str.56, ptr noundef @.str.57)
  %22 = call i32 (ptr, ...) @pg_printf(ptr noundef @.str.58, ptr noundef @.str.59, ptr noundef @.str.60)
  ret void
}