; Function Attrs: nounwind uwtable
define internal fastcc void @help(ptr noundef %0) unnamed_addr #0 {
  %2 = tail call i32 (ptr, ...) @pg_printf(ptr noundef nonnull @.str.40, ptr noundef %0) #11
  %3 = tail call i32 (ptr, ...) @pg_printf(ptr noundef nonnull @.str.41, ptr noundef %0) #11
  %4 = tail call i32 (ptr, ...) @pg_printf(ptr noundef nonnull @.str.42) #11
  %5 = tail call i32 (ptr, ...) @pg_printf(ptr noundef nonnull @.str.43) #11
  %6 = tail call i32 (ptr, ...) @pg_printf(ptr noundef nonnull @.str.44) #11
  %7 = tail call i32 (ptr, ...) @pg_printf(ptr noundef nonnull @.str.45) #11
  %8 = tail call i32 (ptr, ...) @pg_printf(ptr noundef nonnull @.str.46) #11
  %9 = tail call i32 (ptr, ...) @pg_printf(ptr noundef nonnull @.str.47) #11
  %10 = tail call i32 (ptr, ...) @pg_printf(ptr noundef nonnull @.str.48) #11
  %11 = tail call i32 (ptr, ...) @pg_printf(ptr noundef nonnull @.str.49) #11
  %12 = tail call i32 (ptr, ...) @pg_printf(ptr noundef nonnull @.str.50) #11
  %13 = tail call i32 (ptr, ...) @pg_printf(ptr noundef nonnull @.str.51) #11
  %14 = tail call i32 (ptr, ...) @pg_printf(ptr noundef nonnull @.str.52) #11
  %15 = tail call i32 (ptr, ...) @pg_printf(ptr noundef nonnull @.str.53) #11
  %16 = tail call i32 (ptr, ...) @pg_printf(ptr noundef nonnull @.str.54) #11
  %17 = tail call i32 (ptr, ...) @pg_printf(ptr noundef nonnull @.str.55) #11
  %18 = tail call i32 (ptr, ...) @pg_printf(ptr noundef nonnull @.str.56, ptr noundef nonnull @.str.57) #11
  %19 = tail call i32 (ptr, ...) @pg_printf(ptr noundef nonnull @.str.58, ptr noundef nonnull @.str.59, ptr noundef nonnull @.str.60) #11
  ret void
}